target datalayout = "e-m:e-p270:32:32-p271:32:32-p272:64:64-i64:64-i128:128-f80:128-n8:16:32:64-S128"
target triple = "x86_64-unknown-linux-gnu"

%"class.icu_75::RuleBasedBreakIterator" = type <{ %"class.icu_75::BreakIterator.base", i8, %struct.UText, ptr, i32, i32, i32, [4 x i8], ptr, ptr, ptr, ptr, i32, [4 x i8], ptr, %"class.icu_75::UCharCharacterIterator", i8, [7 x i8], ptr, i8, [7 x i8] }>
%"class.icu_75::BreakIterator.base" = type <{ %"class.icu_75::UObject", [157 x i8], [157 x i8], [157 x i8] }>
%"class.icu_75::UObject" = type { ptr }
%struct.UText = type { i32, i32, i32, i32, i64, i32, i32, i64, i32, i32, ptr, ptr, ptr, ptr, ptr, ptr, ptr, ptr, i64, i32, i32, i64, i32, i32 }
%"class.icu_75::UCharCharacterIterator" = type { %"class.icu_75::CharacterIterator", ptr }
%"class.icu_75::CharacterIterator" = type { %"class.icu_75::ForwardCharacterIterator", i32, i32, i32, i32 }
%"class.icu_75::ForwardCharacterIterator" = type { %"class.icu_75::UObject" }
%"class.icu_75::RuleBasedBreakIterator::BreakCache" = type { ptr, ptr, i32, i32, i32, i32, [128 x i32], [128 x i16], %"class.icu_75::UVector32" }
%"class.icu_75::UVector32" = type { %"class.icu_75::UObject", i32, i32, i32, ptr }

; Function Attrs: mustprogress nounwind uwtable
define linkonce_odr noundef i32 @_ZN6icu_7522RuleBasedBreakIterator10BreakCache12modChunkSizeEi(i32 noundef %index) #0 comdat align 2 {
entry:
  %index.addr = alloca i32, align 4
  store i32 %index, ptr %index.addr, align 4
  %0 = load i32, ptr %index.addr, align 4
  %and = and i32 %0, 127
  ret i32 %and
}

; Function Attrs: mustprogress uwtable
define linkonce_odr void @_ZN6icu_7522RuleBasedBreakIterator10BreakCache4nextEv(ptr noundef nonnull align 8 dereferenceable(832) %this) #1 comdat align 2 {
entry:
  %this.addr = alloca ptr, align 8
  store ptr %this, ptr %this.addr, align 8
  %this1 = load ptr, ptr %this.addr, align 8
  %fBufIdx = getelementptr inbounds %"class.icu_75::RuleBasedBreakIterator::BreakCache", ptr %this1, i32 0, i32 5
  %0 = load i32, ptr %fBufIdx, align 4
  %fEndBufIdx = getelementptr inbounds %"class.icu_75::RuleBasedBreakIterator::BreakCache", ptr %this1, i32 0, i32 3
  %1 = load i32, ptr %fEndBufIdx, align 4
  %cmp = icmp eq i32 %0, %1
  br i1 %cmp, label %if.then, label %if.else

if.then:                                          ; preds = %entry
  call void @_ZN6icu_7522RuleBasedBreakIterator10BreakCache6nextOLEv(ptr noundef nonnull align 8 dereferenceable(832) %this1)
  br label %if.end

if.else:                                          ; preds = %entry
  %fBufIdx2 = getelementptr inbounds %"class.icu_75::RuleBasedBreakIterator::BreakCache", ptr %this1, i32 0, i32 5
  %2 = load i32, ptr %fBufIdx2, align 4
  %add = add nsw i32 %2, 1
  %call = call noundef i32 @_ZN6icu_7522RuleBasedBreakIterator10BreakCache12modChunkSizeEi(i32 noundef %add)
  %fBufIdx3 = getelementptr inbounds %"class.icu_75::RuleBasedBreakIterator::BreakCache", ptr %this1, i32 0, i32 5
  store i32 %call, ptr %fBufIdx3, align 4
  %fBoundaries = getelementptr inbounds %"class.icu_75::RuleBasedBreakIterator::BreakCache", ptr %this1, i32 0, i32 6
  %fBufIdx4 = getelementptr inbounds %"class.icu_75::RuleBasedBreakIterator::BreakCache", ptr %this1, i32 0, i32 5
  %3 = load i32, ptr %fBufIdx4, align 4
  %idxprom = sext i32 %3 to i64
  %arrayidx = getelementptr inbounds [128 x i32], ptr %fBoundaries, i64 0, i64 %idxprom
  %4 = load i32, ptr %arrayidx, align 4
  %fBI = getelementptr inbounds %"class.icu_75::RuleBasedBreakIterator::BreakCache", ptr %this1, i32 0, i32 1
  %5 = load ptr, ptr %fBI, align 8
  %fPosition = getelementptr inbounds %"class.icu_75::RuleBasedBreakIterator", ptr %5, i32 0, i32 5
  store i32 %4, ptr %fPosition, align 4
  %fTextIdx = getelementptr inbounds %"class.icu_75::RuleBasedBreakIterator::BreakCache", ptr %this1, i32 0, i32 4
  store i32 %4, ptr %fTextIdx, align 8
  %fStatuses = getelementptr inbounds %"class.icu_75::RuleBasedBreakIterator::BreakCache", ptr %this1, i32 0, i32 7
  %fBufIdx5 = getelementptr inbounds %"class.icu_75::RuleBasedBreakIterator::BreakCache", ptr %this1, i32 0, i32 5
  %6 = load i32, ptr %fBufIdx5, align 4
  %idxprom6 = sext i32 %6 to i64
  %arrayidx7 = getelementptr inbounds [128 x i16], ptr %fStatuses, i64 0, i64 %idxprom6
  %7 = load i16, ptr %arrayidx7, align 2
  %conv = zext i16 %7 to i32
  %fBI8 = getelementptr inbounds %"class.icu_75::RuleBasedBreakIterator::BreakCache", ptr %this1, i32 0, i32 1
  %8 = load ptr, ptr %fBI8, align 8
  %fRuleStatusIndex = getelementptr inbounds %"class.icu_75::RuleBasedBreakIterator", ptr %8, i32 0, i32 6
  store i32 %conv, ptr %fRuleStatusIndex, align 8
  br label %if.end

if.end:                                           ; preds = %if.else, %if.then
  ret void
}

; Function Attrs: mustprogress uwtable
define noundef i32 @_ZN6icu_7522RuleBasedBreakIterator4nextEv(ptr noundef nonnull align 8 dereferenceable(745) %this) unnamed_addr #1 align 2 {
entry:
  %this.addr = alloca ptr, align 8
  store ptr %this, ptr %this.addr, align 8
  %this1 = load ptr, ptr %this.addr, align 8
  %fBreakCache = getelementptr inbounds %"class.icu_75::RuleBasedBreakIterator", ptr %this1, i32 0, i32 8
  %0 = load ptr, ptr %fBreakCache, align 8
  call void @_ZN6icu_7522RuleBasedBreakIterator10BreakCache4nextEv(ptr noundef nonnull align 8 dereferenceable(832) %0)
  %fDone = getelementptr inbounds %"class.icu_75::RuleBasedBreakIterator", ptr %this1, i32 0, i32 16
  %1 = load i8, ptr %fDone, align 8
  %tobool = trunc i8 %1 to i1
  br i1 %tobool, label %cond.true, label %cond.false

cond.true:                                        ; preds = %entry
  br label %cond.end

cond.false:                                       ; preds = %entry
  %fPosition = getelementptr inbounds %"class.icu_75::RuleBasedBreakIterator", ptr %this1, i32 0, i32 5
  %2 = load i32, ptr %fPosition, align 4
  br label %cond.end

cond.end:                                         ; preds = %cond.false, %cond.true
  %cond = phi i32 [ -1, %cond.true ], [ %2, %cond.false ]
  ret i32 %cond
}