; Function Attrs: mustprogress uwtable
define noundef i32 @_ZN6icu_7522RuleBasedBreakIterator4nextEv(ptr nocapture noundef nonnull readonly align 8 dereferenceable(745) %this) unnamed_addr #1 align 2 {
entry:
  %fBreakCache = getelementptr inbounds i8, ptr %this, i64 648
  %0 = load ptr, ptr %fBreakCache, align 8
  %fBufIdx.i = getelementptr inbounds i8, ptr %0, i64 28
  %1 = load i32, ptr %fBufIdx.i, align 4
  %fEndBufIdx.i = getelementptr inbounds i8, ptr %0, i64 20
  %2 = load i32, ptr %fEndBufIdx.i, align 4
  %cmp.i = icmp eq i32 %1, %2
  br i1 %cmp.i, label %if.then.i, label %if.else.i

if.then.i:                                        ; preds = %entry
  tail call void @_ZN6icu_7522RuleBasedBreakIterator10BreakCache6nextOLEv(ptr noundef nonnull align 8 dereferenceable(832) %0)
  br label %_ZN6icu_7522RuleBasedBreakIterator10BreakCache4nextEv.exit

if.else.i:                                        ; preds = %entry
  %add.i = add nsw i32 %1, 1
  %and.i.i = and i32 %add.i, 127
  store i32 %and.i.i, ptr %fBufIdx.i, align 4
  %fBoundaries.i = getelementptr inbounds i8, ptr %0, i64 32
  %idxprom.i = zext nneg i32 %and.i.i to i64
  %arrayidx.i = getelementptr inbounds [128 x i32], ptr %fBoundaries.i, i64 0, i64 %idxprom.i
  %3 = load i32, ptr %arrayidx.i, align 4
  %fBI.i = getelementptr inbounds i8, ptr %0, i64 8
  %4 = load ptr, ptr %fBI.i, align 8
  %fPosition.i = getelementptr inbounds i8, ptr %4, i64 636
  store i32 %3, ptr %fPosition.i, align 4
  %fTextIdx.i = getelementptr inbounds i8, ptr %0, i64 24
  store i32 %3, ptr %fTextIdx.i, align 8
  %fStatuses.i = getelementptr inbounds i8, ptr %0, i64 544
  %5 = load i32, ptr %fBufIdx.i, align 4
  %idxprom6.i = sext i32 %5 to i64
  %arrayidx7.i = getelementptr inbounds [128 x i16], ptr %fStatuses.i, i64 0, i64 %idxprom6.i
  %6 = load i16, ptr %arrayidx7.i, align 2
  %conv.i = zext i16 %6 to i32
  %7 = load ptr, ptr %fBI.i, align 8
  %fRuleStatusIndex.i = getelementptr inbounds i8, ptr %7, i64 640
  store i32 %conv.i, ptr %fRuleStatusIndex.i, align 8
  br label %_ZN6icu_7522RuleBasedBreakIterator10BreakCache4nextEv.exit

_ZN6icu_7522RuleBasedBreakIterator10BreakCache4nextEv.exit: ; preds = %if.then.i, %if.else.i
  %fDone = getelementptr inbounds i8, ptr %this, i64 728
  %8 = load i8, ptr %fDone, align 8
  %9 = and i8 %8, 1
  %tobool.not = icmp eq i8 %9, 0
  %fPosition = getelementptr inbounds i8, ptr %this, i64 636
  %10 = load i32, ptr %fPosition, align 4
  %cond = select i1 %tobool.not, i32 %10, i32 -1
  ret i32 %cond
}